target datalayout = "e-m:e-p270:32:32-p271:32:32-p272:64:64-i64:64-i128:128-f80:128-n8:16:32:64-S128"
target triple = "x86_64-pc-linux-gnu"

%struct.rb_data_type_struct = type { ptr, %struct.anon.5, ptr, ptr, i64 }
%struct.anon.5 = type { ptr, ptr, ptr, ptr, [1 x ptr] }
%struct.rb_econv_t = type { i32, i32, ptr, ptr, ptr, i64, ptr, ptr, ptr, ptr, ptr, ptr, i32, i32, i32, i32, ptr, %struct.anon, ptr, ptr }
%struct.anon = type { i32, ptr, ptr, ptr, ptr, i64, i64 }

@sym_invalid_byte_sequence = internal global i64 0, align 8
@sym_undefined_conversion = internal global i64 0, align 8
@sym_destination_buffer_full = internal global i64 0, align 8
@sym_source_buffer_empty = internal global i64 0, align 8
@sym_finished = internal global i64 0, align 8
@sym_after_output = internal global i64 0, align 8
@sym_incomplete_input = internal global i64 0, align 8
@econv_data_type = internal constant %struct.rb_data_type_struct { ptr @.str.110, %struct.anon.5 { ptr null, ptr @econv_free, ptr @econv_memsize, ptr null, [1 x ptr] zeroinitializer }, ptr null, ptr null, i64 1 }, align 8
@rb_eTypeError = external global i64, align 8
@.str.119 = private unnamed_addr constant [33 x i8] c"uninitialized encoding converter\00", align 1

; Function Attrs: inlinehint nounwind sspstrong willreturn memory(none) uwtable
define internal i64 @RB_INT2FIX(i64 noundef %0) #10 {
  %2 = alloca i64, align 8
  %3 = alloca i64, align 8
  %4 = alloca i64, align 8
  %5 = alloca i64, align 8
  %6 = alloca i64, align 8
  %7 = alloca i64, align 8
  store i64 %0, ptr %2, align 8, !tbaa !12
  call void @llvm.lifetime.start.p0(i64 8, ptr %3) #25
  %8 = load i64, ptr %2, align 8, !tbaa !12
  store i64 %8, ptr %3, align 8, !tbaa !12
  call void @llvm.lifetime.start.p0(i64 8, ptr %4) #25
  %9 = load i64, ptr %3, align 8, !tbaa !12
  %10 = shl i64 %9, 1
  %11 = add i64 %10, 1
  store i64 %11, ptr %4, align 8, !tbaa !12
  call void @llvm.lifetime.start.p0(i64 8, ptr %5) #25
  %12 = load i64, ptr %4, align 8, !tbaa !12
  store i64 %12, ptr %5, align 8, !tbaa !12
  call void @llvm.lifetime.start.p0(i64 8, ptr %6) #25
  %13 = load i64, ptr %5, align 8, !tbaa !12
  store i64 %13, ptr %6, align 8, !tbaa !12
  call void @llvm.lifetime.start.p0(i64 8, ptr %7) #25
  %14 = load i64, ptr %6, align 8, !tbaa !12
  store i64 %14, ptr %7, align 8, !tbaa !12
  %15 = load i64, ptr %7, align 8, !tbaa !12
  call void @llvm.lifetime.end.p0(i64 8, ptr %7) #25
  call void @llvm.lifetime.end.p0(i64 8, ptr %6) #25
  call void @llvm.lifetime.end.p0(i64 8, ptr %5) #25
  call void @llvm.lifetime.end.p0(i64 8, ptr %4) #25
  call void @llvm.lifetime.end.p0(i64 8, ptr %3) #25
  ret i64 %15
}

; Function Attrs: inlinehint nounwind sspstrong uwtable
define internal i64 @rb_int2num_inline(i32 noundef %0) #7 {
  %2 = alloca i64, align 8
  %3 = alloca i32, align 4
  store i32 %0, ptr %3, align 4, !tbaa !29
  %4 = load i32, ptr %3, align 4, !tbaa !29
  %5 = sext i32 %4 to i64
  %6 = icmp slt i64 %5, 4611686018427387904
  br i1 %6, label %7, label %15

7:                                                ; preds = %1
  %8 = load i32, ptr %3, align 4, !tbaa !29
  %9 = sext i32 %8 to i64
  %10 = icmp sge i64 %9, -4611686018427387904
  br i1 %10, label %11, label %15

11:                                               ; preds = %7
  %12 = load i32, ptr %3, align 4, !tbaa !29
  %13 = sext i32 %12 to i64
  %14 = call i64 @RB_INT2FIX(i64 noundef %13) #31
  store i64 %14, ptr %2, align 8
  br label %19

15:                                               ; preds = %7, %1
  %16 = load i32, ptr %3, align 4, !tbaa !29
  %17 = sext i32 %16 to i64
  %18 = call i64 @rb_int2big(i64 noundef %17)
  store i64 %18, ptr %2, align 8
  br label %19

19:                                               ; preds = %15, %11
  %20 = load i64, ptr %2, align 8
  ret i64 %20
}

; Function Attrs: nounwind sspstrong uwtable
define internal i64 @econv_result_to_symbol(i32 noundef %0) #0 {
  %2 = alloca i64, align 8
  %3 = alloca i32, align 4
  store i32 %0, ptr %3, align 4, !tbaa !29
  %4 = load i32, ptr %3, align 4, !tbaa !29
  switch i32 %4, label %19 [
    i32 0, label %5
    i32 6, label %7
    i32 1, label %9
    i32 2, label %11
    i32 3, label %13
    i32 4, label %15
    i32 5, label %17
  ]

5:                                                ; preds = %1
  %6 = load i64, ptr @sym_invalid_byte_sequence, align 8, !tbaa !12
  store i64 %6, ptr %2, align 8
  br label %22

7:                                                ; preds = %1
  %8 = load i64, ptr @sym_incomplete_input, align 8, !tbaa !12
  store i64 %8, ptr %2, align 8
  br label %22

9:                                                ; preds = %1
  %10 = load i64, ptr @sym_undefined_conversion, align 8, !tbaa !12
  store i64 %10, ptr %2, align 8
  br label %22

11:                                               ; preds = %1
  %12 = load i64, ptr @sym_destination_buffer_full, align 8, !tbaa !12
  store i64 %12, ptr %2, align 8
  br label %22

13:                                               ; preds = %1
  %14 = load i64, ptr @sym_source_buffer_empty, align 8, !tbaa !12
  store i64 %14, ptr %2, align 8
  br label %22

15:                                               ; preds = %1
  %16 = load i64, ptr @sym_finished, align 8, !tbaa !12
  store i64 %16, ptr %2, align 8
  br label %22

17:                                               ; preds = %1
  %18 = load i64, ptr @sym_after_output, align 8, !tbaa !12
  store i64 %18, ptr %2, align 8
  br label %22

19:                                               ; preds = %1
  %20 = load i32, ptr %3, align 4, !tbaa !29
  %21 = call i64 @rb_int2num_inline(i32 noundef %20)
  store i64 %21, ptr %2, align 8
  br label %22

22:                                               ; preds = %19, %17, %15, %13, %11, %9, %7, %5
  %23 = load i64, ptr %2, align 8
  ret i64 %23
}

; Function Attrs: nounwind sspstrong uwtable
define internal ptr @check_econv(i64 noundef %0) #0 {
  %2 = alloca i64, align 8
  %3 = alloca ptr, align 8
  store i64 %0, ptr %2, align 8, !tbaa !12
  call void @llvm.lifetime.start.p0(i64 8, ptr %3) #25
  %4 = load i64, ptr %2, align 8, !tbaa !12
  %5 = call ptr @rb_check_typeddata(i64 noundef %4, ptr noundef @econv_data_type)
  store ptr %5, ptr %3, align 8, !tbaa !30
  %6 = load ptr, ptr %3, align 8, !tbaa !30
  %7 = icmp ne ptr %6, null
  br i1 %7, label %10, label %8

8:                                                ; preds = %1
  %9 = load i64, ptr @rb_eTypeError, align 8, !tbaa !12
  call void (i64, ptr, ...) @rb_raise(i64 noundef %9, ptr noundef @.str.119) #26
  unreachable

10:                                               ; preds = %1
  %11 = load ptr, ptr %3, align 8, !tbaa !30
  call void @llvm.lifetime.end.p0(i64 8, ptr %3) #25
  ret ptr %11
}

; Function Attrs: nounwind sspstrong uwtable
define internal i64 @econv_primitive_errinfo(i64 noundef %0) #0 {
  %2 = alloca i64, align 8
  %3 = alloca ptr, align 8
  %4 = alloca i64, align 8
  store i64 %0, ptr %2, align 8, !tbaa !12
  call void @llvm.lifetime.start.p0(i64 8, ptr %3) #25
  %5 = load i64, ptr %2, align 8, !tbaa !12
  %6 = call ptr @check_econv(i64 noundef %5)
  store ptr %6, ptr %3, align 8, !tbaa !30
  call void @llvm.lifetime.start.p0(i64 8, ptr %4) #25
  %7 = call i64 @rb_ary_new_capa(i64 noundef 5)
  store i64 %7, ptr %4, align 8, !tbaa !12
  %8 = load i64, ptr %4, align 8, !tbaa !12
  %9 = load ptr, ptr %3, align 8, !tbaa !30
  %10 = getelementptr inbounds nuw %struct.rb_econv_t, ptr %9, i32 0, i32 17
  %11 = getelementptr inbounds nuw %struct.anon, ptr %10, i32 0, i32 0
  %12 = load i32, ptr %11, align 8, !tbaa !65
  %13 = call i64 @econv_result_to_symbol(i32 noundef %12)
  call void @rb_ary_store(i64 noundef %8, i64 noundef 0, i64 noundef %13)
  %14 = load i64, ptr %4, align 8, !tbaa !12
  call void @rb_ary_store(i64 noundef %14, i64 noundef 4, i64 noundef 4)
  %15 = load ptr, ptr %3, align 8, !tbaa !30
  %16 = getelementptr inbounds nuw %struct.rb_econv_t, ptr %15, i32 0, i32 17
  %17 = getelementptr inbounds nuw %struct.anon, ptr %16, i32 0, i32 2
  %18 = load ptr, ptr %17, align 8, !tbaa !68
  %19 = icmp ne ptr %18, null
  br i1 %19, label %20, label %27

20:                                               ; preds = %1
  %21 = load i64, ptr %4, align 8, !tbaa !12
  %22 = load ptr, ptr %3, align 8, !tbaa !30
  %23 = getelementptr inbounds nuw %struct.rb_econv_t, ptr %22, i32 0, i32 17
  %24 = getelementptr inbounds nuw %struct.anon, ptr %23, i32 0, i32 2
  %25 = load ptr, ptr %24, align 8, !tbaa !68
  %26 = call i64 @rb_str_new_cstr(ptr noundef %25)
  call void @rb_ary_store(i64 noundef %21, i64 noundef 1, i64 noundef %26)
  br label %27

27:                                               ; preds = %20, %1
  %28 = load ptr, ptr %3, align 8, !tbaa !30
  %29 = getelementptr inbounds nuw %struct.rb_econv_t, ptr %28, i32 0, i32 17
  %30 = getelementptr inbounds nuw %struct.anon, ptr %29, i32 0, i32 3
  %31 = load ptr, ptr %30, align 8, !tbaa !69
  %32 = icmp ne ptr %31, null
  br i1 %32, label %33, label %40

33:                                               ; preds = %27
  %34 = load i64, ptr %4, align 8, !tbaa !12
  %35 = load ptr, ptr %3, align 8, !tbaa !30
  %36 = getelementptr inbounds nuw %struct.rb_econv_t, ptr %35, i32 0, i32 17
  %37 = getelementptr inbounds nuw %struct.anon, ptr %36, i32 0, i32 3
  %38 = load ptr, ptr %37, align 8, !tbaa !69
  %39 = call i64 @rb_str_new_cstr(ptr noundef %38)
  call void @rb_ary_store(i64 noundef %34, i64 noundef 2, i64 noundef %39)
  br label %40

40:                                               ; preds = %33, %27
  %41 = load ptr, ptr %3, align 8, !tbaa !30
  %42 = getelementptr inbounds nuw %struct.rb_econv_t, ptr %41, i32 0, i32 17
  %43 = getelementptr inbounds nuw %struct.anon, ptr %42, i32 0, i32 4
  %44 = load ptr, ptr %43, align 8, !tbaa !71
  %45 = icmp ne ptr %44, null
  br i1 %45, label %46, label %90

46:                                               ; preds = %40
  %47 = load i64, ptr %4, align 8, !tbaa !12
  br i1 false, label %48, label %54

48:                                               ; preds = %46
  %49 = load ptr, ptr %3, align 8, !tbaa !30
  %50 = getelementptr inbounds nuw %struct.rb_econv_t, ptr %49, i32 0, i32 17
  %51 = getelementptr inbounds nuw %struct.anon, ptr %50, i32 0, i32 5
  %52 = load i64, ptr %51, align 8, !tbaa !73
  %53 = call i1 @llvm.is.constant.i64(i64 %52)
  br label %54

54:                                               ; preds = %48, %46
  %55 = phi i1 [ false, %46 ], [ %53, %48 ]
  %56 = select i1 %55, ptr @rb_str_new_static, ptr @rb_str_new
  %57 = load ptr, ptr %3, align 8, !tbaa !30
  %58 = getelementptr inbounds nuw %struct.rb_econv_t, ptr %57, i32 0, i32 17
  %59 = getelementptr inbounds nuw %struct.anon, ptr %58, i32 0, i32 4
  %60 = load ptr, ptr %59, align 8, !tbaa !71
  %61 = load ptr, ptr %3, align 8, !tbaa !30
  %62 = getelementptr inbounds nuw %struct.rb_econv_t, ptr %61, i32 0, i32 17
  %63 = getelementptr inbounds nuw %struct.anon, ptr %62, i32 0, i32 5
  %64 = load i64, ptr %63, align 8, !tbaa !73
  %65 = call i64 %56(ptr noundef %60, i64 noundef %64)
  call void @rb_ary_store(i64 noundef %47, i64 noundef 3, i64 noundef %65)
  %66 = load i64, ptr %4, align 8, !tbaa !12
  br i1 false, label %67, label %73

67:                                               ; preds = %54
  %68 = load ptr, ptr %3, align 8, !tbaa !30
  %69 = getelementptr inbounds nuw %struct.rb_econv_t, ptr %68, i32 0, i32 17
  %70 = getelementptr inbounds nuw %struct.anon, ptr %69, i32 0, i32 6
  %71 = load i64, ptr %70, align 8, !tbaa !75
  %72 = call i1 @llvm.is.constant.i64(i64 %71)
  br label %73

73:                                               ; preds = %67, %54
  %74 = phi i1 [ false, %54 ], [ %72, %67 ]
  %75 = select i1 %74, ptr @rb_str_new_static, ptr @rb_str_new
  %76 = load ptr, ptr %3, align 8, !tbaa !30
  %77 = getelementptr inbounds nuw %struct.rb_econv_t, ptr %76, i32 0, i32 17
  %78 = getelementptr inbounds nuw %struct.anon, ptr %77, i32 0, i32 4
  %79 = load ptr, ptr %78, align 8, !tbaa !71
  %80 = load ptr, ptr %3, align 8, !tbaa !30
  %81 = getelementptr inbounds nuw %struct.rb_econv_t, ptr %80, i32 0, i32 17
  %82 = getelementptr inbounds nuw %struct.anon, ptr %81, i32 0, i32 5
  %83 = load i64, ptr %82, align 8, !tbaa !73
  %84 = getelementptr i8, ptr %79, i64 %83
  %85 = load ptr, ptr %3, align 8, !tbaa !30
  %86 = getelementptr inbounds nuw %struct.rb_econv_t, ptr %85, i32 0, i32 17
  %87 = getelementptr inbounds nuw %struct.anon, ptr %86, i32 0, i32 6
  %88 = load i64, ptr %87, align 8, !tbaa !75
  %89 = call i64 %75(ptr noundef %84, i64 noundef %88)
  call void @rb_ary_store(i64 noundef %66, i64 noundef 4, i64 noundef %89)
  br label %90

90:                                               ; preds = %73, %40
  %91 = load i64, ptr %4, align 8, !tbaa !12
  call void @llvm.lifetime.end.p0(i64 8, ptr %4) #25
  call void @llvm.lifetime.end.p0(i64 8, ptr %3) #25
  ret i64 %91
}