; Function Attrs: nounwind sspstrong uwtable
define internal i64 @econv_primitive_errinfo(i64 noundef %0) #0 {
  %2 = tail call ptr @rb_check_typeddata(i64 noundef %0, ptr noundef nonnull @econv_data_type) #22
  %.not.i = icmp eq ptr %2, null
  br i1 %.not.i, label %3, label %check_econv.exit

3:                                                ; preds = %1
  %4 = load i64, ptr @rb_eTypeError, align 8, !tbaa !22
  tail call void (i64, ptr, ...) @rb_raise(i64 noundef %4, ptr noundef nonnull @.str.119) #23
  unreachable

check_econv.exit:                                 ; preds = %1
  %5 = tail call i64 @rb_ary_new_capa(i64 noundef 5) #22
  %6 = getelementptr inbounds nuw i8, ptr %2, i64 112
  %7 = load i32, ptr %6, align 8, !tbaa !50
  switch i32 %7, label %22 [
    i32 0, label %8
    i32 6, label %10
    i32 1, label %12
    i32 2, label %14
    i32 3, label %16
    i32 4, label %18
    i32 5, label %20
  ]

8:                                                ; preds = %check_econv.exit
  %9 = load i64, ptr @sym_invalid_byte_sequence, align 8, !tbaa !22
  br label %econv_result_to_symbol.exit

10:                                               ; preds = %check_econv.exit
  %11 = load i64, ptr @sym_incomplete_input, align 8, !tbaa !22
  br label %econv_result_to_symbol.exit

12:                                               ; preds = %check_econv.exit
  %13 = load i64, ptr @sym_undefined_conversion, align 8, !tbaa !22
  br label %econv_result_to_symbol.exit

14:                                               ; preds = %check_econv.exit
  %15 = load i64, ptr @sym_destination_buffer_full, align 8, !tbaa !22
  br label %econv_result_to_symbol.exit

16:                                               ; preds = %check_econv.exit
  %17 = load i64, ptr @sym_source_buffer_empty, align 8, !tbaa !22
  br label %econv_result_to_symbol.exit

18:                                               ; preds = %check_econv.exit
  %19 = load i64, ptr @sym_finished, align 8, !tbaa !22
  br label %econv_result_to_symbol.exit

20:                                               ; preds = %check_econv.exit
  %21 = load i64, ptr @sym_after_output, align 8, !tbaa !22
  br label %econv_result_to_symbol.exit

22:                                               ; preds = %check_econv.exit
  %23 = sext i32 %7 to i64
  %24 = shl nsw i64 %23, 1
  %25 = or disjoint i64 %24, 1
  br label %econv_result_to_symbol.exit

econv_result_to_symbol.exit:                      ; preds = %8, %10, %12, %14, %16, %18, %20, %22
  %.0.i = phi i64 [ %25, %22 ], [ %21, %20 ], [ %19, %18 ], [ %17, %16 ], [ %15, %14 ], [ %13, %12 ], [ %11, %10 ], [ %9, %8 ]
  tail call void @rb_ary_store(i64 noundef %5, i64 noundef 0, i64 noundef %.0.i) #22
  tail call void @rb_ary_store(i64 noundef %5, i64 noundef 4, i64 noundef 4) #22
  %26 = getelementptr inbounds nuw i8, ptr %2, i64 128
  %27 = load ptr, ptr %26, align 8, !tbaa !89
  %.not = icmp eq ptr %27, null
  br i1 %.not, label %30, label %28

28:                                               ; preds = %econv_result_to_symbol.exit
  %29 = tail call i64 @rb_str_new_cstr(ptr noundef nonnull %27) #22
  tail call void @rb_ary_store(i64 noundef %5, i64 noundef 1, i64 noundef %29) #22
  br label %30

30:                                               ; preds = %28, %econv_result_to_symbol.exit
  %31 = getelementptr inbounds nuw i8, ptr %2, i64 136
  %32 = load ptr, ptr %31, align 8, !tbaa !90
  %.not20 = icmp eq ptr %32, null
  br i1 %.not20, label %35, label %33

33:                                               ; preds = %30
  %34 = tail call i64 @rb_str_new_cstr(ptr noundef nonnull %32) #22
  tail call void @rb_ary_store(i64 noundef %5, i64 noundef 2, i64 noundef %34) #22
  br label %35

35:                                               ; preds = %33, %30
  %36 = getelementptr inbounds nuw i8, ptr %2, i64 144
  %37 = load ptr, ptr %36, align 8, !tbaa !91
  %.not21 = icmp eq ptr %37, null
  br i1 %.not21, label %48, label %38

38:                                               ; preds = %35
  %39 = getelementptr inbounds nuw i8, ptr %2, i64 152
  %40 = load i64, ptr %39, align 8, !tbaa !93
  %41 = tail call i64 @rb_str_new(ptr noundef nonnull %37, i64 noundef %40) #22
  tail call void @rb_ary_store(i64 noundef %5, i64 noundef 3, i64 noundef %41) #22
  %42 = load ptr, ptr %36, align 8, !tbaa !91
  %43 = load i64, ptr %39, align 8, !tbaa !93
  %44 = getelementptr i8, ptr %42, i64 %43
  %45 = getelementptr inbounds nuw i8, ptr %2, i64 160
  %46 = load i64, ptr %45, align 8, !tbaa !95
  %47 = tail call i64 @rb_str_new(ptr noundef %44, i64 noundef %46) #22
  tail call void @rb_ary_store(i64 noundef %5, i64 noundef 4, i64 noundef %47) #22
  br label %48

48:                                               ; preds = %38, %35
  ret i64 %5
}